(dp1
I2100
I125219
sI1600
I3
sI1602
I74315
sI1603
I77881
sI1604
I67342
sI1605
I2094
sI1606
I32408
sI1607
I25349
sI1608
I57479
sI1609
I63995
sI1610
I49192
sI1611
I50112
sI1100
I212249
sI1613
I44567
sI1614
I9141
sI1700
I1
sI1702
I408499
sI1703
I93883
sI1704
I2861
sI1705
I6553
sI1706
I105170
sI1707
I136830
sI1708
I142908
sI1709
I18922
sI1710
I13242
sI1711
I46729
sI1200
I7
sI1202
I3259
sI1203
I30511
sI1204
I8258
sI1205
I103539
sI1206
I7523
sI1207
I28540
sI1208
I3575
sI1209
I34390
sI1210
I51624
sI1211
I4871
sI1400
I1
sI1402
I54763
sI1403
I572107
sI1407
I124783
sI1800
I8
sI1802
I7586
sI1804
I3632
sI1805
I40300
sI1806
I68248
sI1807
I43922
sI1808
I241966
sI1809
I44048
sI1302
I29105
sI1303
I14198
sI1304
I6660
sI1305
I5426
sI1306
I13248
sI1307
I1506
sI1308
I473
sI1900
I5
sI1902
I292878
sI1903
I95015
sI1904
I52084
sI1000
I5074
sI1907
I181345
sI1908
I28912
sI1909
I55729
sI1910
I7885
sI1911
I1465
sI1912
I46717
sI1913
I13463
sI1914
I23453
sI1915
I4835
sI1404
I30667
sI1405
I64063
sI1406
I54394
sI1905
I1448
sI1408
I155883
sI1612
I32503
sI2000
I6
sI2002
I14571
sI2003
I53704
sI2004
I159334
sI2005
I4998
sI2006
I27232
sI1500
I2
sI1502
I16262
sI1503
I57335
sI1504
I15084
sI1505
I51339
sI1506
I14846
sI1507
I2569
sI1509
I2941
sI1510
I83877
sI1511
I25254
sI1512
I18502
sI1513
I276203
sI1514
I60131
sI1515
I31992
sI1516
I2454
s.