(dp1
I0
I17042
sI1
I35067
sI2
I32800
sI3
I3957
sI4
I7905
sI5
I54970
sI6
I24878
sI7
I3378
sI8
I139734
sI9
I19063
sI10
I83993
sI11
I16735
sI12
I6454
sI13
I70234
sI14
I2584
sI15
I31150
sI16
I268216
sI17
I13493
sI18
I5078
sI19
I37158
sI20
I226877
sI21
I15124
sI22
I6836
sI23
I28440
sI24
I106559
sI25
I105219
sI26
I91760
sI27
I51659
sI28
I3107
sI29
I22201
sI30
I3772
sI31
I3017
sI32
I86861
sI33
I6893
sI34
I2008
sI35
I85100
sI36
I80320
sI37
I48967
sI38
I8234
sI39
I14574
sI40
I2094
sI41
I53463
sI42
I24060
sI43
I111586
sI44
I35108
sI45
I22712
sI46
I32730
sI47
I39577
sI48
I7114
sI49
I154783
sI50
I3238
sI51
I13000
sI52
I35135
sI53
I15796
sI54
I18639
sI55
I53509
sI56
I20214
sI57
I23935
sI58
I4185
sI59
I2959
sI60
I13122
sI61
I43365
sI62
I62091
sI63
I6731
sI64
I44482
sI65
I41630
sI66
I81719
sI67
I26683
sI68
I39252
sI69
I8072
sI70
I4082
sI71
I89300
sI72
I24910
sI73
I4936
sI74
I92482
sI75
I69990
sI76
I3091
sI77
I6872
sI78
I9281
sI79
I20152
sI80
I10416
sI81
I20203
sI82
I50106
sI83
I7748
sI84
I84964
sI85
I73545
sI86
I23215
sI87
I7777
sI88
I2450
sI89
I79114
sI90
I12441
sI91
I8832
sI92
I98563
sI93
I55907
sI94
I79196
sI95
I60234
sI96
I12957
sI97
I98549
sI98
I5843
sI99
I2477
sI100
I83164
sI101
I7948
sI102
I68125
sI103
I15323
sI104
I14828
sI105
I4428
sI106
I11592
sI107
I157643
sI108
I42744
sI109
I16113
sI110
I22525
sI111
I8172
sI112
I82102
sI113
I31561
sI114
I3328
sI115
I6539
sI116
I10000
sI117
I21826
sI118
I10216
sI119
I9700
sI120
I4139
sI121
I14802
sI122
I1839
sI123
I1866
sI124
I11185
sI125
I33080
sI126
I5405
sI127
I16582
sI128
I9714
sI129
I70608
sI130
I31671
sI131
I70859
sI132
I18942
sI133
I15777
sI134
I39470
sI135
I7859
sI136
I124320
sI137
I40259
sI138
I28663
sI139
I7693
sI140
I195645
sI141
I20782
sI142
I22700
sI143
I181260
sI144
I13795
sI145
I52769
sI146
I5517
sI147
I12642
sI148
I50346
sI149
I16339
sI150
I69069
sI151
I8214
sI152
I9385
sI153
I121627
sI154
I11746
sI155
I11629
sI156
I15871
sI157
I4427
sI158
I3281
sI159
I16824
sI160
I121968
sI161
I3868
sI162
I25368
sI163
I50322
sI164
I9741
sI165
I48546
sI166
I10165
sI167
I17383
sI168
I72731
sI169
I2817
sI170
I43065
sI171
I2694
sI172
I52253
sI173
I135951
sI174
I87173
sI175
I34280
sI176
I61132
sI177
I28929
sI178
I4387
sI179
I51194
sI180
I9417
sI181
I177946
sI182
I7964
sI183
I60368
sI184
I256028
sI185
I5102
sI186
I38045
sI187
I7881
sI188
I3307
sI189
I4727
sI190
I15277
sI191
I9212
sI192
I85752
sI193
I34219
sI194
I74871
sI195
I2574
sI196
I72372
sI197
I6494
sI198
I65911
sI199
I82815
sI200
I41045
sI201
I22583
sI202
I71455
sI203
I20660
sI204
I20298
sI205
I3745
sI206
I9774
sI207
I76395
sI208
I15751
sI209
I12224
sI210
I3747
sI211
I18189
sI212
I3304
sI213
I11440
sI214
I34768
sI215
I9532
sI216
I123496
sI217
I7439
sI218
I2638
sI219
I59046
sI220
I3928
sI221
I27990
sI222
I4724
sI223
I31559
sI224
I9607
sI225
I24211
sI226
I30727
sI227
I17637
sI228
I12652
sI229
I34576
sI230
I28735
sI231
I122104
sI232
I48994
sI233
I6210
sI234
I17147
sI235
I156856
sI236
I2866
sI237
I11254
sI238
I41542
sI239
I62744
sI240
I6209
sI241
I59593
sI242
I11998
sI243
I9043
sI244
I73319
sI245
I2492
sI246
I4495
sI247
I74704
sI248
I44123
sI249
I102675
sI250
I57058
sI251
I1929
sI252
I95091
sI253
I3498
sI254
I95615
sI255
I7446
sI256
I8312
sI257
I5637
sI258
I120182
sI259
I29410
sI260
I91576
sI261
I4631
sI262
I50938
sI263
I5153
sI264
I37909
sI265
I101952
sI266
I9856
sI267
I11262
sI268
I10031
sI269
I65995
sI270
I33027
sI271
I58950
sI272
I3704
sI273
I2799
sI274
I17483
sI275
I18437
sI276
I40804
sI277
I5414
sI278
I3636
sI279
I36809
sI280
I5348
sI281
I39535
sI282
I8924
sI283
I42326
sI284
I12885
sI285
I62396
sI286
I44732
sI287
I26952
sI288
I1883
sI289
I5544
sI290
I62522
sI291
I49140
sI292
I77779
sI293
I1717
sI294
I92037
sI295
I12078
sI296
I81468
sI297
I54956
sI298
I8149
sI299
I6041
s.